; Function Attrs: mustprogress nofree norecurse nosync nounwind memory(readwrite, inaccessiblemem: none) uwtable
define void @_ZN4AAHD14refine_hv_dirsEv(ptr noundef nonnull readonly align 8 captures(none) dereferenceable(128) %0) local_unnamed_addr #4 align 2 {
  %2 = getelementptr inbounds nuw i8, ptr %0, i64 120
  %3 = load ptr, ptr %2, align 8, !tbaa !95
  %4 = getelementptr inbounds nuw i8, ptr %3, i64 28
  %5 = load i16, ptr %4, align 4, !tbaa !11
  %.not = icmp eq i16 %5, 0
  br i1 %.not, label %._crit_edge, label %.lr.ph

.preheader13:                                     ; preds = %.lr.ph
  %6 = icmp eq i16 %11, 0
  br i1 %6, label %._crit_edge, label %.lr.ph16

.lr.ph:                                           ; preds = %1, %.lr.ph
  %.01214 = phi i32 [ %8, %.lr.ph ], [ 0, %1 ]
  %7 = and i32 %.01214, 1
  tail call void @_ZN4AAHD14refine_hv_dirsEii(ptr noundef nonnull align 8 dereferenceable(128) %0, i32 noundef %.01214, i32 noundef %7)
  %8 = add nuw nsw i32 %.01214, 1
  %9 = load ptr, ptr %2, align 8, !tbaa !95
  %10 = getelementptr inbounds nuw i8, ptr %9, i64 28
  %11 = load i16, ptr %10, align 4, !tbaa !11
  %12 = zext i16 %11 to i32
  %13 = icmp samesign ult i32 %8, %12
  br i1 %13, label %.lr.ph, label %.preheader13, !llvm.loop !127

.preheader:                                       ; preds = %.lr.ph16
  %14 = icmp eq i16 %20, 0
  br i1 %14, label %._crit_edge, label %.lr.ph18

.lr.ph16:                                         ; preds = %.preheader13, %.lr.ph16
  %.01115 = phi i32 [ %17, %.lr.ph16 ], [ 0, %.preheader13 ]
  %15 = and i32 %.01115, 1
  %16 = xor i32 %15, 1
  tail call void @_ZN4AAHD14refine_hv_dirsEii(ptr noundef nonnull align 8 dereferenceable(128) %0, i32 noundef %.01115, i32 noundef %16)
  %17 = add nuw nsw i32 %.01115, 1
  %18 = load ptr, ptr %2, align 8, !tbaa !95
  %19 = getelementptr inbounds nuw i8, ptr %18, i64 28
  %20 = load i16, ptr %19, align 4, !tbaa !11
  %21 = zext i16 %20 to i32
  %22 = icmp samesign ult i32 %17, %21
  br i1 %22, label %.lr.ph16, label %.preheader, !llvm.loop !128

._crit_edge:                                      ; preds = %.lr.ph18, %1, %.preheader13, %.preheader
  ret void

.lr.ph18:                                         ; preds = %.preheader, %.lr.ph18
  %.017 = phi i32 [ %23, %.lr.ph18 ], [ 0, %.preheader ]
  tail call void @_ZN4AAHD15refine_ihv_dirsEi(ptr noundef nonnull align 8 dereferenceable(128) %0, i32 noundef %.017)
  %23 = add nuw nsw i32 %.017, 1
  %24 = load ptr, ptr %2, align 8, !tbaa !95
  %25 = getelementptr inbounds nuw i8, ptr %24, i64 28
  %26 = load i16, ptr %25, align 4, !tbaa !11
  %27 = zext i16 %26 to i32
  %28 = icmp samesign ult i32 %23, %27
  br i1 %28, label %.lr.ph18, label %._crit_edge, !llvm.loop !129
}